target datalayout = "e-m:e-p270:32:32-p271:32:32-p272:64:64-i64:64-i128:128-f80:128-n8:16:32:64-S128"
target triple = "x86_64-pc-linux-gnu"

%struct.dh_st = type { i32, i32, %struct.ffc_params_st, i32, ptr, ptr, i32, ptr, %struct.CRYPTO_REF_COUNT, %struct.crypto_ex_data_st, ptr, ptr, ptr, ptr, i64 }
%struct.ffc_params_st = type { ptr, ptr, ptr, ptr, ptr, i64, i32, i32, i32, i32, i32, ptr, ptr, i32 }
%struct.CRYPTO_REF_COUNT = type { i32 }
%struct.crypto_ex_data_st = type { ptr, ptr }

@.str = private unnamed_addr constant [32 x i8] c"../openssl/crypto/dh/dh_check.c\00", align 1
@__func__.DH_check_pub_key = private unnamed_addr constant [17 x i8] c"DH_check_pub_key\00", align 1

; Function Attrs: nounwind uwtable
define i32 @DH_check_pub_key(ptr noundef %0, ptr noundef %1, ptr noundef %2) #0 {
  %4 = alloca i32, align 4
  %5 = alloca ptr, align 8
  %6 = alloca ptr, align 8
  %7 = alloca ptr, align 8
  store ptr %0, ptr %5, align 8, !tbaa !3
  store ptr %1, ptr %6, align 8, !tbaa !12
  store ptr %2, ptr %7, align 8, !tbaa !10
  %8 = load ptr, ptr %5, align 8, !tbaa !3
  %9 = getelementptr inbounds nuw %struct.dh_st, ptr %8, i32 0, i32 2
  %10 = getelementptr inbounds nuw %struct.ffc_params_st, ptr %9, i32 0, i32 0
  %11 = load ptr, ptr %10, align 8, !tbaa !28
  %12 = call i32 @BN_num_bits(ptr noundef %11)
  %13 = icmp sgt i32 %12, 32768
  br i1 %13, label %14, label %16

14:                                               ; preds = %3
  call void @ERR_new()
  call void @ERR_set_debug(ptr noundef @.str, i32 noundef 254, ptr noundef @__func__.DH_check_pub_key)
  call void (i32, i32, ptr, ...) @ERR_set_error(i32 noundef 5, i32 noundef 103, ptr noundef null)
  %15 = load ptr, ptr %7, align 8, !tbaa !10
  store i32 260, ptr %15, align 4, !tbaa !8
  store i32 0, ptr %4, align 4
  br label %43

16:                                               ; preds = %3
  %17 = load ptr, ptr %5, align 8, !tbaa !3
  %18 = getelementptr inbounds nuw %struct.dh_st, ptr %17, i32 0, i32 2
  %19 = getelementptr inbounds nuw %struct.ffc_params_st, ptr %18, i32 0, i32 1
  %20 = load ptr, ptr %19, align 8, !tbaa !30
  %21 = icmp ne ptr %20, null
  br i1 %21, label %22, label %37

22:                                               ; preds = %16
  %23 = load ptr, ptr %5, align 8, !tbaa !3
  %24 = getelementptr inbounds nuw %struct.dh_st, ptr %23, i32 0, i32 2
  %25 = getelementptr inbounds nuw %struct.ffc_params_st, ptr %24, i32 0, i32 0
  %26 = load ptr, ptr %25, align 8, !tbaa !28
  %27 = load ptr, ptr %5, align 8, !tbaa !3
  %28 = getelementptr inbounds nuw %struct.dh_st, ptr %27, i32 0, i32 2
  %29 = getelementptr inbounds nuw %struct.ffc_params_st, ptr %28, i32 0, i32 1
  %30 = load ptr, ptr %29, align 8, !tbaa !30
  %31 = call i32 @BN_ucmp(ptr noundef %26, ptr noundef %30)
  %32 = icmp slt i32 %31, 0
  br i1 %32, label %33, label %37

33:                                               ; preds = %22
  %34 = load ptr, ptr %7, align 8, !tbaa !10
  %35 = load i32, ptr %34, align 4, !tbaa !8
  %36 = or i32 %35, 36
  store i32 %36, ptr %34, align 4, !tbaa !8
  store i32 1, ptr %4, align 4
  br label %43

37:                                               ; preds = %22, %16
  %38 = load ptr, ptr %5, align 8, !tbaa !3
  %39 = getelementptr inbounds nuw %struct.dh_st, ptr %38, i32 0, i32 2
  %40 = load ptr, ptr %6, align 8, !tbaa !12
  %41 = load ptr, ptr %7, align 8, !tbaa !10
  %42 = call i32 @ossl_ffc_validate_public_key(ptr noundef %39, ptr noundef %40, ptr noundef %41)
  store i32 %42, ptr %4, align 4
  br label %43

43:                                               ; preds = %37, %33, %14
  %44 = load i32, ptr %4, align 4
  ret i32 %44
}