; Function Attrs: nounwind uwtable
define i32 @DH_check_pub_key(ptr noundef %0, ptr noundef %1, ptr noundef %2) local_unnamed_addr #0 {
  %4 = getelementptr inbounds nuw i8, ptr %0, i64 8
  %5 = load ptr, ptr %4, align 8, !tbaa !21
  %6 = tail call i32 @BN_num_bits(ptr noundef %5) #3
  %7 = icmp sgt i32 %6, 32768
  br i1 %7, label %8, label %9

8:                                                ; preds = %3
  tail call void @ERR_new() #3
  tail call void @ERR_set_debug(ptr noundef nonnull @.str, i32 noundef 254, ptr noundef nonnull @__func__.DH_check_pub_key) #3
  tail call void (i32, i32, ptr, ...) @ERR_set_error(i32 noundef 5, i32 noundef 103, ptr noundef null) #3
  store i32 260, ptr %2, align 4, !tbaa !3
  br label %21

9:                                                ; preds = %3
  %10 = getelementptr inbounds nuw i8, ptr %0, i64 16
  %11 = load ptr, ptr %10, align 8, !tbaa !23
  %.not = icmp eq ptr %11, null
  br i1 %.not, label %19, label %12

12:                                               ; preds = %9
  %13 = load ptr, ptr %4, align 8, !tbaa !21
  %14 = tail call i32 @BN_ucmp(ptr noundef %13, ptr noundef nonnull %11) #3
  %15 = icmp slt i32 %14, 0
  br i1 %15, label %16, label %19

16:                                               ; preds = %12
  %17 = load i32, ptr %2, align 4, !tbaa !3
  %18 = or i32 %17, 36
  store i32 %18, ptr %2, align 4, !tbaa !3
  br label %21

19:                                               ; preds = %12, %9
  %20 = tail call i32 @ossl_ffc_validate_public_key(ptr noundef nonnull %4, ptr noundef %1, ptr noundef %2) #3
  br label %21

21:                                               ; preds = %19, %16, %8
  %.0 = phi i32 [ 0, %8 ], [ 1, %16 ], [ %20, %19 ]
  ret i32 %.0
}